target datalayout = "e-m:e-p270:32:32-p271:32:32-p272:64:64-i64:64-i128:128-f80:128-n8:16:32:64-S128"
target triple = "x86_64-pc-linux-gnu"

%"class.llvm::GlobalValue" = type { %"class.llvm::Constant", ptr, i32, i32, ptr }
%"class.llvm::Constant" = type { %"class.llvm::User" }
%"class.llvm::User" = type { %"class.llvm::Value" }
%"class.llvm::Value" = type { i8, i8, i16, i32, ptr, ptr }
%"class.llvm::StringRef" = type { ptr, i64 }
%"struct.llvm::MaybeAlign" = type { %"class.std::optional" }
%"class.std::optional" = type { %"struct.std::_Optional_base" }
%"struct.std::_Optional_base" = type { %"struct.std::_Optional_payload" }
%"struct.std::_Optional_payload" = type { %"struct.std::_Optional_payload_base" }
%"struct.std::_Optional_payload_base" = type { %"union.std::_Optional_payload_base<llvm::Align>::_Storage", i8 }
%"union.std::_Optional_payload_base<llvm::Align>::_Storage" = type { %"struct.std::_Optional_payload_base<llvm::Align>::_Empty_byte" }
%"struct.std::_Optional_payload_base<llvm::Align>::_Empty_byte" = type { i8 }
%"struct.llvm::Align" = type { i8 }

; Function Attrs: mustprogress nounwind uwtable
define linkonce_odr hidden void @_ZNSt22_Optional_payload_baseIN4llvm5AlignEE8_StorageIS1_Lb1EEC2IJRS1_EEESt10in_place_tDpOT_(ptr noundef nonnull align 1 dereferenceable(1) %0, ptr noundef nonnull align 1 dereferenceable(1) %1) unnamed_addr #0 comdat align 2 {
  %3 = alloca ptr, align 8
  %4 = alloca ptr, align 8
  store ptr %0, ptr %3, align 8
  store ptr %1, ptr %4, align 8
  %5 = load ptr, ptr %3, align 8
  %6 = load ptr, ptr %4, align 8
  call void @llvm.memcpy.p0.p0.i64(ptr align 1 %5, ptr align 1 %6, i64 1, i1 false)
  ret void
}

; Function Attrs: mustprogress nounwind uwtable
define linkonce_odr hidden void @_ZNSt22_Optional_payload_baseIN4llvm5AlignEE8_StorageIS1_Lb1EEC2Ev(ptr noundef nonnull align 1 dereferenceable(1) %0) unnamed_addr #0 comdat align 2 {
  %2 = alloca ptr, align 8
  store ptr %0, ptr %2, align 8
  ret void
}

; Function Attrs: mustprogress nounwind uwtable
define linkonce_odr hidden void @_ZNSt22_Optional_payload_baseIN4llvm5AlignEEC2IJRS1_EEESt10in_place_tDpOT_(ptr noundef nonnull align 1 dereferenceable(2) %0, ptr noundef nonnull align 1 dereferenceable(1) %1) unnamed_addr #0 comdat align 2 {
  %3 = alloca ptr, align 8
  %4 = alloca ptr, align 8
  store ptr %0, ptr %3, align 8
  store ptr %1, ptr %4, align 8
  %5 = load ptr, ptr %3, align 8
  %6 = getelementptr inbounds nuw %"struct.std::_Optional_payload_base", ptr %5, i32 0, i32 0
  %7 = load ptr, ptr %4, align 8
  call void @_ZNSt22_Optional_payload_baseIN4llvm5AlignEE8_StorageIS1_Lb1EEC2IJRS1_EEESt10in_place_tDpOT_(ptr noundef nonnull align 1 dereferenceable(1) %6, ptr noundef nonnull align 1 dereferenceable(1) %7)
  %8 = getelementptr inbounds nuw %"struct.std::_Optional_payload_base", ptr %5, i32 0, i32 1
  store i8 1, ptr %8, align 1
  ret void
}

; Function Attrs: mustprogress nounwind uwtable
define linkonce_odr hidden void @_ZNSt22_Optional_payload_baseIN4llvm5AlignEEC2Ev(ptr noundef nonnull align 1 dereferenceable(2) %0) unnamed_addr #0 comdat align 2 {
  %2 = alloca ptr, align 8
  store ptr %0, ptr %2, align 8
  %3 = load ptr, ptr %2, align 8
  %4 = getelementptr inbounds nuw %"struct.std::_Optional_payload_base", ptr %3, i32 0, i32 0
  call void @_ZNSt22_Optional_payload_baseIN4llvm5AlignEE8_StorageIS1_Lb1EEC2Ev(ptr noundef nonnull align 1 dereferenceable(1) %4) #9
  %5 = getelementptr inbounds nuw %"struct.std::_Optional_payload_base", ptr %3, i32 0, i32 1
  store i8 0, ptr %5, align 1
  ret void
}

; Function Attrs: mustprogress nounwind uwtable
define linkonce_odr hidden void @_ZNSt17_Optional_payloadIN4llvm5AlignELb1ELb1ELb1EECI2St22_Optional_payload_baseIS1_EIJRS1_EEESt10in_place_tDpOT_(ptr noundef nonnull align 1 dereferenceable(2) %0, ptr noundef nonnull align 1 dereferenceable(1) %1) unnamed_addr #0 comdat align 2 {
  %3 = alloca ptr, align 8
  %4 = alloca ptr, align 8
  store ptr %0, ptr %3, align 8
  store ptr %1, ptr %4, align 8
  %5 = load ptr, ptr %3, align 8
  %6 = load ptr, ptr %4, align 8
  call void @_ZNSt22_Optional_payload_baseIN4llvm5AlignEEC2IJRS1_EEESt10in_place_tDpOT_(ptr noundef nonnull align 1 dereferenceable(2) %5, ptr noundef nonnull align 1 dereferenceable(1) %6)
  ret void
}

; Function Attrs: mustprogress nounwind uwtable
define linkonce_odr hidden void @_ZNSt17_Optional_payloadIN4llvm5AlignELb1ELb1ELb1EEC2Ev(ptr noundef nonnull align 1 dereferenceable(2) %0) unnamed_addr #0 comdat align 2 {
  %2 = alloca ptr, align 8
  store ptr %0, ptr %2, align 8
  %3 = load ptr, ptr %2, align 8
  call void @_ZNSt22_Optional_payload_baseIN4llvm5AlignEEC2Ev(ptr noundef nonnull align 1 dereferenceable(2) %3) #9
  ret void
}

; Function Attrs: mustprogress nounwind uwtable
define linkonce_odr hidden noundef nonnull align 1 dereferenceable(1) ptr @_ZNSt22_Optional_payload_baseIN4llvm5AlignEE6_M_getEv(ptr noundef nonnull align 1 dereferenceable(2) %0) #0 comdat align 2 {
  %2 = alloca ptr, align 8
  store ptr %0, ptr %2, align 8
  %3 = load ptr, ptr %2, align 8
  %4 = getelementptr inbounds nuw %"struct.std::_Optional_payload_base", ptr %3, i32 0, i32 0
  ret ptr %4
}

; Function Attrs: mustprogress nounwind uwtable
define linkonce_odr hidden void @_ZNSt14_Optional_baseIN4llvm5AlignELb1ELb1EEC2IJRS1_ETnNSt9enable_ifIX18is_constructible_vIS1_DpT_EEbE4typeELb0EEESt10in_place_tDpOS6_(ptr noundef nonnull align 1 dereferenceable(2) %0, ptr noundef nonnull align 1 dereferenceable(1) %1) unnamed_addr #0 comdat align 2 {
  %3 = alloca ptr, align 8
  %4 = alloca ptr, align 8
  store ptr %0, ptr %3, align 8
  store ptr %1, ptr %4, align 8
  %5 = load ptr, ptr %3, align 8
  %6 = getelementptr inbounds nuw %"struct.std::_Optional_base", ptr %5, i32 0, i32 0
  %7 = load ptr, ptr %4, align 8
  call void @_ZNSt17_Optional_payloadIN4llvm5AlignELb1ELb1ELb1EECI2St22_Optional_payload_baseIS1_EIJRS1_EEESt10in_place_tDpOT_(ptr noundef nonnull align 1 dereferenceable(2) %6, ptr noundef nonnull align 1 dereferenceable(1) %7)
  ret void
}

; Function Attrs: mustprogress nounwind uwtable
define linkonce_odr hidden void @_ZNSt14_Optional_baseIN4llvm5AlignELb1ELb1EEC2Ev(ptr noundef nonnull align 1 dereferenceable(2) %0) unnamed_addr #0 comdat align 2 {
  %2 = alloca ptr, align 8
  store ptr %0, ptr %2, align 8
  %3 = load ptr, ptr %2, align 8
  %4 = getelementptr inbounds nuw %"struct.std::_Optional_base", ptr %3, i32 0, i32 0
  call void @_ZNSt17_Optional_payloadIN4llvm5AlignELb1ELb1ELb1EEC2Ev(ptr noundef nonnull align 1 dereferenceable(2) %4) #9
  ret void
}

; Function Attrs: mustprogress nounwind uwtable
define linkonce_odr hidden noundef nonnull align 1 dereferenceable(1) ptr @_ZNSt19_Optional_base_implIN4llvm5AlignESt14_Optional_baseIS1_Lb1ELb1EEE6_M_getEv(ptr noundef nonnull align 1 dereferenceable(1) %0) #0 comdat align 2 {
  %2 = alloca ptr, align 8
  store ptr %0, ptr %2, align 8
  %3 = load ptr, ptr %2, align 8
  br label %4

4:                                                ; preds = %1
  br label %5

5:                                                ; preds = %4
  %6 = getelementptr inbounds nuw %"struct.std::_Optional_base", ptr %3, i32 0, i32 0
  %7 = call noundef nonnull align 1 dereferenceable(1) ptr @_ZNSt22_Optional_payload_baseIN4llvm5AlignEE6_M_getEv(ptr noundef nonnull align 1 dereferenceable(2) %6) #9
  ret ptr %7
}

; Function Attrs: mustprogress nounwind uwtable
define linkonce_odr hidden noundef zeroext i1 @_ZNKSt19_Optional_base_implIN4llvm5AlignESt14_Optional_baseIS1_Lb1ELb1EEE13_M_is_engagedEv(ptr noundef nonnull align 1 dereferenceable(1) %0) #0 comdat align 2 {
  %2 = alloca ptr, align 8
  store ptr %0, ptr %2, align 8
  %3 = load ptr, ptr %2, align 8
  %4 = getelementptr inbounds nuw %"struct.std::_Optional_base", ptr %3, i32 0, i32 0
  %5 = getelementptr inbounds nuw %"struct.std::_Optional_payload_base", ptr %4, i32 0, i32 1
  %6 = load i8, ptr %5, align 1
  %7 = trunc i8 %6 to i1
  ret i1 %7
}

; Function Attrs: mustprogress nounwind uwtable
define linkonce_odr hidden void @_ZNSt8optionalIN4llvm5AlignEEC2IRS1_TnNSt9enable_ifIX7__and_vISt6__not_ISt7is_sameIS2_NSt9remove_cvINSt16remove_referenceIT_E4typeEE4typeEEES6_IS7_ISt10in_place_tSE_EESt16is_constructibleIS1_JSA_EESt14is_convertibleISA_S1_EEEbE4typeELb1EEEOSA_(ptr noundef nonnull align 1 dereferenceable(2) %0, ptr noundef nonnull align 1 dereferenceable(1) %1) unnamed_addr #0 comdat align 2 {
  %3 = alloca ptr, align 8
  %4 = alloca ptr, align 8
  store ptr %0, ptr %3, align 8
  store ptr %1, ptr %4, align 8
  %5 = load ptr, ptr %3, align 8
  %6 = load ptr, ptr %4, align 8
  call void @_ZNSt14_Optional_baseIN4llvm5AlignELb1ELb1EEC2IJRS1_ETnNSt9enable_ifIX18is_constructible_vIS1_DpT_EEbE4typeELb0EEESt10in_place_tDpOS6_(ptr noundef nonnull align 1 dereferenceable(2) %5, ptr noundef nonnull align 1 dereferenceable(1) %6)
  ret void
}

; Function Attrs: mustprogress nounwind uwtable
define linkonce_odr hidden void @_ZNSt8optionalIN4llvm5AlignEEC2Ev(ptr noundef nonnull align 1 dereferenceable(2) %0) unnamed_addr #0 comdat align 2 {
  %2 = alloca ptr, align 8
  store ptr %0, ptr %2, align 8
  %3 = load ptr, ptr %2, align 8
  call void @_ZNSt14_Optional_baseIN4llvm5AlignELb1ELb1EEC2Ev(ptr noundef nonnull align 1 dereferenceable(2) %3) #9
  ret void
}

; Function Attrs: mustprogress nounwind uwtable
define linkonce_odr hidden noundef ptr @_ZNSt8optionalIN4llvm5AlignEEptEv(ptr noundef nonnull align 1 dereferenceable(2) %0) #0 comdat align 2 {
  %2 = alloca ptr, align 8
  store ptr %0, ptr %2, align 8
  %3 = load ptr, ptr %2, align 8
  %4 = call noundef nonnull align 1 dereferenceable(1) ptr @_ZNSt19_Optional_base_implIN4llvm5AlignESt14_Optional_baseIS1_Lb1ELb1EEE6_M_getEv(ptr noundef nonnull align 1 dereferenceable(1) %3) #9
  ret ptr %4
}

; Function Attrs: mustprogress nounwind uwtable
define linkonce_odr hidden noundef zeroext i1 @_ZNKSt8optionalIN4llvm5AlignEEcvbEv(ptr noundef nonnull align 1 dereferenceable(2) %0) #0 comdat align 2 {
  %2 = alloca ptr, align 8
  store ptr %0, ptr %2, align 8
  %3 = load ptr, ptr %2, align 8
  %4 = call noundef zeroext i1 @_ZNKSt19_Optional_base_implIN4llvm5AlignESt14_Optional_baseIS1_Lb1ELb1EEE13_M_is_engagedEv(ptr noundef nonnull align 1 dereferenceable(1) %3) #9
  ret i1 %4
}

; Function Attrs: mustprogress nounwind uwtable
define linkonce_odr hidden void @_ZN4llvm10MaybeAlignC2ENS_5AlignE(ptr noundef nonnull align 1 dereferenceable(2) %0, i8 %1) unnamed_addr #0 comdat align 2 {
  %3 = alloca %"struct.llvm::Align", align 1
  %4 = alloca ptr, align 8
  %5 = getelementptr inbounds nuw %"struct.llvm::Align", ptr %3, i32 0, i32 0
  store i8 %1, ptr %5, align 1
  store ptr %0, ptr %4, align 8
  %6 = load ptr, ptr %4, align 8
  call void @_ZNSt8optionalIN4llvm5AlignEEC2IRS1_TnNSt9enable_ifIX7__and_vISt6__not_ISt7is_sameIS2_NSt9remove_cvINSt16remove_referenceIT_E4typeEE4typeEEES6_IS7_ISt10in_place_tSE_EESt16is_constructibleIS1_JSA_EESt14is_convertibleISA_S1_EEEbE4typeELb1EEEOSA_(ptr noundef nonnull align 1 dereferenceable(2) %6, ptr noundef nonnull align 1 dereferenceable(1) %3) #9
  ret void
}

; Function Attrs: mustprogress nounwind uwtable
define linkonce_odr hidden void @_ZN4llvm5AlignC2Ev(ptr noundef nonnull align 1 dereferenceable(1) %0) unnamed_addr #0 comdat align 2 {
  %2 = alloca ptr, align 8
  store ptr %0, ptr %2, align 8
  %3 = load ptr, ptr %2, align 8
  %4 = getelementptr inbounds nuw %"struct.llvm::Align", ptr %3, i32 0, i32 0
  store i8 0, ptr %4, align 1
  ret void
}

; Function Attrs: mustprogress nounwind uwtable
define linkonce_odr hidden void @_ZN4llvm10MaybeAlignC2Ev(ptr noundef nonnull align 1 dereferenceable(2) %0) unnamed_addr #0 comdat align 2 {
  %2 = alloca ptr, align 8
  store ptr %0, ptr %2, align 8
  %3 = load ptr, ptr %2, align 8
  call void @_ZNSt8optionalIN4llvm5AlignEEC2Ev(ptr noundef nonnull align 1 dereferenceable(2) %3) #9
  ret void
}

; Function Attrs: mustprogress nounwind uwtable
define linkonce_odr hidden void @_ZN4llvm11GlobalValue26setGlobalValueSubClassDataEj(ptr noundef nonnull align 8 dereferenceable(48) %0, i32 noundef %1) #0 comdat align 2 {
  %3 = alloca ptr, align 8
  %4 = alloca i32, align 4
  store ptr %0, ptr %3, align 8
  store i32 %1, ptr %4, align 4
  %5 = load ptr, ptr %3, align 8
  %6 = load i32, ptr %4, align 4
  %7 = getelementptr inbounds nuw %"class.llvm::GlobalValue", ptr %5, i32 0, i32 2
  %8 = load i32, ptr %7, align 8
  %9 = and i32 %6, 32767
  %10 = shl i32 %9, 17
  %11 = and i32 %8, 131071
  %12 = or i32 %11, %10
  store i32 %12, ptr %7, align 8
  ret void
}

; Function Attrs: mustprogress nounwind uwtable
define linkonce_odr hidden noundef i32 @_ZN4llvm6encodeENS_10MaybeAlignE(i16 %0) #0 comdat {
  %2 = alloca %"struct.llvm::MaybeAlign", align 1
  %3 = getelementptr inbounds nuw %"struct.llvm::MaybeAlign", ptr %2, i32 0, i32 0
  %4 = getelementptr inbounds nuw %"class.std::optional", ptr %3, i32 0, i32 0
  %5 = getelementptr inbounds nuw %"struct.std::_Optional_base", ptr %4, i32 0, i32 0
  %6 = getelementptr inbounds nuw %"struct.std::_Optional_payload", ptr %5, i32 0, i32 0
  store i16 %0, ptr %6, align 1
  %7 = call noundef zeroext i1 @_ZNKSt8optionalIN4llvm5AlignEEcvbEv(ptr noundef nonnull align 1 dereferenceable(2) %2) #9
  br i1 %7, label %8, label %14

8:                                                ; preds = %1
  %9 = call noundef ptr @_ZNSt8optionalIN4llvm5AlignEEptEv(ptr noundef nonnull align 1 dereferenceable(2) %2) #9
  %10 = getelementptr inbounds nuw %"struct.llvm::Align", ptr %9, i32 0, i32 0
  %11 = load i8, ptr %10, align 1
  %12 = zext i8 %11 to i32
  %13 = add nsw i32 %12, 1
  br label %15

14:                                               ; preds = %1
  br label %15

15:                                               ; preds = %14, %8
  %16 = phi i32 [ %13, %8 ], [ 0, %14 ]
  ret i32 %16
}

; Function Attrs: mustprogress nounwind uwtable
define linkonce_odr hidden i16 @_ZN4llvm16decodeMaybeAlignEj(i32 noundef %0) #0 comdat {
  %2 = alloca %"struct.llvm::MaybeAlign", align 1
  %3 = alloca i32, align 4
  %4 = alloca %"struct.llvm::Align", align 1
  %5 = alloca %"struct.llvm::Align", align 1
  store i32 %0, ptr %3, align 4
  %6 = load i32, ptr %3, align 4
  %7 = icmp eq i32 %6, 0
  br i1 %7, label %8, label %9

8:                                                ; preds = %1
  call void @llvm.memset.p0.i64(ptr align 1 %2, i8 0, i64 2, i1 false)
  call void @_ZN4llvm10MaybeAlignC2Ev(ptr noundef nonnull align 1 dereferenceable(2) %2) #9
  br label %16

9:                                                ; preds = %1
  call void @_ZN4llvm5AlignC2Ev(ptr noundef nonnull align 1 dereferenceable(1) %4) #9
  %10 = load i32, ptr %3, align 4
  %11 = sub i32 %10, 1
  %12 = trunc i32 %11 to i8
  %13 = getelementptr inbounds nuw %"struct.llvm::Align", ptr %4, i32 0, i32 0
  store i8 %12, ptr %13, align 1
  call void @llvm.memcpy.p0.p0.i64(ptr align 1 %5, ptr align 1 %4, i64 1, i1 false)
  %14 = getelementptr inbounds nuw %"struct.llvm::Align", ptr %5, i32 0, i32 0
  %15 = load i8, ptr %14, align 1
  call void @_ZN4llvm10MaybeAlignC2ENS_5AlignE(ptr noundef nonnull align 1 dereferenceable(2) %2, i8 %15)
  br label %16

16:                                               ; preds = %9, %8
  %17 = getelementptr inbounds nuw %"struct.llvm::MaybeAlign", ptr %2, i32 0, i32 0
  %18 = getelementptr inbounds nuw %"class.std::optional", ptr %17, i32 0, i32 0
  %19 = getelementptr inbounds nuw %"struct.std::_Optional_base", ptr %18, i32 0, i32 0
  %20 = getelementptr inbounds nuw %"struct.std::_Optional_payload", ptr %19, i32 0, i32 0
  %21 = load i16, ptr %20, align 1
  ret i16 %21
}

; Function Attrs: mustprogress nounwind uwtable
define linkonce_odr hidden noundef i32 @_ZNK4llvm11GlobalValue26getGlobalValueSubClassDataEv(ptr noundef nonnull align 8 dereferenceable(48) %0) #0 comdat align 2 {
  %2 = alloca ptr, align 8
  store ptr %0, ptr %2, align 8
  %3 = load ptr, ptr %2, align 8
  %4 = getelementptr inbounds nuw %"class.llvm::GlobalValue", ptr %3, i32 0, i32 2
  %5 = load i32, ptr %4, align 8
  %6 = lshr i32 %5, 17
  ret i32 %6
}

; Function Attrs: mustprogress nounwind uwtable
define dso_local void @_ZN4llvm12GlobalObject12setAlignmentENS_10MaybeAlignE(ptr noundef nonnull align 8 dereferenceable(56) %0, i16 %1) #0 align 2 {
  %3 = alloca %"struct.llvm::MaybeAlign", align 1
  %4 = alloca ptr, align 8
  %5 = alloca i32, align 4
  %6 = alloca %"struct.llvm::MaybeAlign", align 1
  %7 = alloca i32, align 4
  %8 = getelementptr inbounds nuw %"struct.llvm::MaybeAlign", ptr %3, i32 0, i32 0
  %9 = getelementptr inbounds nuw %"class.std::optional", ptr %8, i32 0, i32 0
  %10 = getelementptr inbounds nuw %"struct.std::_Optional_base", ptr %9, i32 0, i32 0
  %11 = getelementptr inbounds nuw %"struct.std::_Optional_payload", ptr %10, i32 0, i32 0
  store i16 %1, ptr %11, align 1
  store ptr %0, ptr %4, align 8
  %12 = load ptr, ptr %4, align 8
  call void @llvm.memcpy.p0.p0.i64(ptr align 1 %6, ptr align 1 %3, i64 2, i1 false)
  %13 = getelementptr inbounds nuw %"struct.llvm::MaybeAlign", ptr %6, i32 0, i32 0
  %14 = getelementptr inbounds nuw %"class.std::optional", ptr %13, i32 0, i32 0
  %15 = getelementptr inbounds nuw %"struct.std::_Optional_base", ptr %14, i32 0, i32 0
  %16 = getelementptr inbounds nuw %"struct.std::_Optional_payload", ptr %15, i32 0, i32 0
  %17 = load i16, ptr %16, align 1
  %18 = call noundef i32 @_ZN4llvm6encodeENS_10MaybeAlignE(i16 %17)
  store i32 %18, ptr %5, align 4
  %19 = call noundef i32 @_ZNK4llvm11GlobalValue26getGlobalValueSubClassDataEv(ptr noundef nonnull align 8 dereferenceable(48) %12)
  store i32 %19, ptr %7, align 4
  %20 = load i32, ptr %7, align 4
  %21 = and i32 %20, -64
  %22 = load i32, ptr %5, align 4
  %23 = or i32 %21, %22
  call void @_ZN4llvm11GlobalValue26setGlobalValueSubClassDataEj(ptr noundef nonnull align 8 dereferenceable(48) %12, i32 noundef %23)
  ret void
}

; Function Attrs: mustprogress nounwind uwtable
define linkonce_odr hidden i16 @_ZNK4llvm12GlobalObject8getAlignEv(ptr noundef nonnull align 8 dereferenceable(56) %0) #0 comdat align 2 {
  %2 = alloca %"struct.llvm::MaybeAlign", align 1
  %3 = alloca ptr, align 8
  %4 = alloca i32, align 4
  %5 = alloca i32, align 4
  store ptr %0, ptr %3, align 8
  %6 = load ptr, ptr %3, align 8
  %7 = call noundef i32 @_ZNK4llvm11GlobalValue26getGlobalValueSubClassDataEv(ptr noundef nonnull align 8 dereferenceable(48) %6)
  store i32 %7, ptr %4, align 4
  %8 = load i32, ptr %4, align 4
  %9 = and i32 %8, 63
  store i32 %9, ptr %5, align 4
  %10 = load i32, ptr %5, align 4
  %11 = call i16 @_ZN4llvm16decodeMaybeAlignEj(i32 noundef %10)
  %12 = getelementptr inbounds nuw %"struct.llvm::MaybeAlign", ptr %2, i32 0, i32 0
  %13 = getelementptr inbounds nuw %"class.std::optional", ptr %12, i32 0, i32 0
  %14 = getelementptr inbounds nuw %"struct.std::_Optional_base", ptr %13, i32 0, i32 0
  %15 = getelementptr inbounds nuw %"struct.std::_Optional_payload", ptr %14, i32 0, i32 0
  store i16 %11, ptr %15, align 1
  %16 = getelementptr inbounds nuw %"struct.llvm::MaybeAlign", ptr %2, i32 0, i32 0
  %17 = getelementptr inbounds nuw %"class.std::optional", ptr %16, i32 0, i32 0
  %18 = getelementptr inbounds nuw %"struct.std::_Optional_base", ptr %17, i32 0, i32 0
  %19 = getelementptr inbounds nuw %"struct.std::_Optional_payload", ptr %18, i32 0, i32 0
  %20 = load i16, ptr %19, align 1
  ret i16 %20
}

; Function Attrs: mustprogress nounwind uwtable
define dso_local void @_ZN4llvm12GlobalObject18copyAttributesFromEPKS0_(ptr noundef nonnull align 8 dereferenceable(56) %0, ptr noundef %1) #0 align 2 {
  %3 = alloca ptr, align 8
  %4 = alloca ptr, align 8
  %5 = alloca %"struct.llvm::MaybeAlign", align 1
  %6 = alloca %"class.llvm::StringRef", align 8
  store ptr %0, ptr %3, align 8
  store ptr %1, ptr %4, align 8
  %7 = load ptr, ptr %3, align 8
  %8 = load ptr, ptr %4, align 8
  call void @_ZN4llvm11GlobalValue18copyAttributesFromEPKS0_(ptr noundef nonnull align 8 dereferenceable(48) %7, ptr noundef %8)
  %9 = load ptr, ptr %4, align 8
  %10 = call i16 @_ZNK4llvm12GlobalObject8getAlignEv(ptr noundef nonnull align 8 dereferenceable(56) %9)
  %11 = getelementptr inbounds nuw %"struct.llvm::MaybeAlign", ptr %5, i32 0, i32 0
  %12 = getelementptr inbounds nuw %"class.std::optional", ptr %11, i32 0, i32 0
  %13 = getelementptr inbounds nuw %"struct.std::_Optional_base", ptr %12, i32 0, i32 0
  %14 = getelementptr inbounds nuw %"struct.std::_Optional_payload", ptr %13, i32 0, i32 0
  store i16 %10, ptr %14, align 1
  %15 = getelementptr inbounds nuw %"struct.llvm::MaybeAlign", ptr %5, i32 0, i32 0
  %16 = getelementptr inbounds nuw %"class.std::optional", ptr %15, i32 0, i32 0
  %17 = getelementptr inbounds nuw %"struct.std::_Optional_base", ptr %16, i32 0, i32 0
  %18 = getelementptr inbounds nuw %"struct.std::_Optional_payload", ptr %17, i32 0, i32 0
  %19 = load i16, ptr %18, align 1
  call void @_ZN4llvm12GlobalObject12setAlignmentENS_10MaybeAlignE(ptr noundef nonnull align 8 dereferenceable(56) %7, i16 %19)
  %20 = load ptr, ptr %4, align 8
  %21 = call { ptr, i64 } @_ZNK4llvm12GlobalObject10getSectionEv(ptr noundef nonnull align 8 dereferenceable(56) %20)
  %22 = getelementptr inbounds nuw { ptr, i64 }, ptr %6, i32 0, i32 0
  %23 = extractvalue { ptr, i64 } %21, 0
  store ptr %23, ptr %22, align 8
  %24 = getelementptr inbounds nuw { ptr, i64 }, ptr %6, i32 0, i32 1
  %25 = extractvalue { ptr, i64 } %21, 1
  store i64 %25, ptr %24, align 8
  %26 = getelementptr inbounds nuw { ptr, i64 }, ptr %6, i32 0, i32 0
  %27 = load ptr, ptr %26, align 8
  %28 = getelementptr inbounds nuw { ptr, i64 }, ptr %6, i32 0, i32 1
  %29 = load i64, ptr %28, align 8
  call void @_ZN4llvm12GlobalObject10setSectionENS_9StringRefE(ptr noundef nonnull align 8 dereferenceable(56) %7, ptr %27, i64 %29)
  ret void
}