; Function Attrs: mustprogress nounwind uwtable
define dso_local void @_ZN4llvm12GlobalObject18copyAttributesFromEPKS0_(ptr noundef nonnull align 8 dereferenceable(56) %0, ptr noundef %1) local_unnamed_addr #1 align 2 {
  tail call void @_ZN4llvm11GlobalValue18copyAttributesFromEPKS0_(ptr noundef nonnull align 8 dereferenceable(48) %0, ptr noundef %1)
  %3 = getelementptr inbounds nuw i8, ptr %1, i64 32
  %4 = load i32, ptr %3, align 8
  %5 = lshr i32 %4, 17
  %6 = and i32 %5, 63
  %.not.i.i = icmp eq i32 %6, 0
  %7 = shl nuw nsw i32 %6, 17
  %8 = add nuw nsw i32 %7, 33423360
  %9 = and i32 %8, 33423360
  %10 = add nuw nsw i32 %9, 131072
  %11 = getelementptr inbounds nuw i8, ptr %0, i64 32
  %12 = load i32, ptr %11, align 8
  %13 = select i1 %.not.i.i, i32 0, i32 %10
  %14 = and i32 %12, -8257537
  %15 = or i32 %13, %14
  store i32 %15, ptr %11, align 8
  %16 = tail call { ptr, i64 } @_ZNK4llvm12GlobalObject10getSectionEv(ptr noundef nonnull align 8 dereferenceable(56) %1)
  %17 = extractvalue { ptr, i64 } %16, 0
  %18 = extractvalue { ptr, i64 } %16, 1
  tail call void @_ZN4llvm12GlobalObject10setSectionENS_9StringRefE(ptr noundef nonnull align 8 dereferenceable(56) %0, ptr %17, i64 %18)
  ret void
}